target datalayout = "e-m:e-p270:32:32-p271:32:32-p272:64:64-i64:64-i128:128-f80:128-n8:16:32:64-S128"
target triple = "x86_64-pc-linux-gnu"

%struct.BuildAccumulator = type { ptr, i64, ptr, i32, ptr, %struct.RBTreeIterator }
%struct.RBTreeIterator = type { ptr, ptr, ptr, i8 }
%struct.GinEntryAccumulator = type { %struct.RBTNode, i64, i8, i16, i8, ptr, i32, i32 }
%struct.RBTNode = type { i8, ptr, ptr, ptr }

; Function Attrs: nounwind uwtable
define dso_local ptr @ginGetBAEntry(ptr noundef %0, ptr noundef %1, ptr noundef %2, ptr noundef %3, ptr noundef %4) #0 {
  %6 = alloca ptr, align 8
  %7 = alloca ptr, align 8
  %8 = alloca ptr, align 8
  %9 = alloca ptr, align 8
  %10 = alloca ptr, align 8
  %11 = alloca ptr, align 8
  %12 = alloca ptr, align 8
  %13 = alloca ptr, align 8
  %14 = alloca i32, align 4
  store ptr %0, ptr %7, align 8
  store ptr %1, ptr %8, align 8
  store ptr %2, ptr %9, align 8
  store ptr %3, ptr %10, align 8
  store ptr %4, ptr %11, align 8
  call void @llvm.lifetime.start.p0(i64 8, ptr %12) #6
  call void @llvm.lifetime.start.p0(i64 8, ptr %13) #6
  %15 = load ptr, ptr %7, align 8
  %16 = getelementptr inbounds nuw %struct.BuildAccumulator, ptr %15, i32 0, i32 5
  %17 = call ptr @rbt_iterate(ptr noundef %16)
  store ptr %17, ptr %12, align 8
  %18 = load ptr, ptr %12, align 8
  %19 = icmp eq ptr %18, null
  br i1 %19, label %20, label %21

20:                                               ; preds = %5
  store ptr null, ptr %6, align 8
  store i32 1, ptr %14, align 4
  br label %58

21:                                               ; preds = %5
  %22 = load ptr, ptr %12, align 8
  %23 = getelementptr inbounds nuw %struct.GinEntryAccumulator, ptr %22, i32 0, i32 3
  %24 = load i16, ptr %23, align 2
  %25 = load ptr, ptr %8, align 8
  store i16 %24, ptr %25, align 2
  %26 = load ptr, ptr %12, align 8
  %27 = getelementptr inbounds nuw %struct.GinEntryAccumulator, ptr %26, i32 0, i32 1
  %28 = load i64, ptr %27, align 8
  %29 = load ptr, ptr %9, align 8
  store i64 %28, ptr %29, align 8
  %30 = load ptr, ptr %12, align 8
  %31 = getelementptr inbounds nuw %struct.GinEntryAccumulator, ptr %30, i32 0, i32 2
  %32 = load i8, ptr %31, align 8
  %33 = load ptr, ptr %10, align 8
  store i8 %32, ptr %33, align 1
  %34 = load ptr, ptr %12, align 8
  %35 = getelementptr inbounds nuw %struct.GinEntryAccumulator, ptr %34, i32 0, i32 5
  %36 = load ptr, ptr %35, align 8
  store ptr %36, ptr %13, align 8
  %37 = load ptr, ptr %12, align 8
  %38 = getelementptr inbounds nuw %struct.GinEntryAccumulator, ptr %37, i32 0, i32 7
  %39 = load i32, ptr %38, align 4
  %40 = load ptr, ptr %11, align 8
  store i32 %39, ptr %40, align 4
  %41 = load ptr, ptr %12, align 8
  %42 = getelementptr inbounds nuw %struct.GinEntryAccumulator, ptr %41, i32 0, i32 4
  %43 = load i8, ptr %42, align 4, !range !4, !noundef !5
  %44 = trunc i8 %43 to i1
  br i1 %44, label %45, label %56

45:                                               ; preds = %21
  %46 = load ptr, ptr %12, align 8
  %47 = getelementptr inbounds nuw %struct.GinEntryAccumulator, ptr %46, i32 0, i32 7
  %48 = load i32, ptr %47, align 4
  %49 = icmp ugt i32 %48, 1
  br i1 %49, label %50, label %56

50:                                               ; preds = %45
  %51 = load ptr, ptr %13, align 8
  %52 = load ptr, ptr %12, align 8
  %53 = getelementptr inbounds nuw %struct.GinEntryAccumulator, ptr %52, i32 0, i32 7
  %54 = load i32, ptr %53, align 4
  %55 = zext i32 %54 to i64
  call void @pg_qsort(ptr noundef %51, i64 noundef %55, i64 noundef 6, ptr noundef @qsortCompareItemPointers)
  br label %56

56:                                               ; preds = %50, %45, %21
  %57 = load ptr, ptr %13, align 8
  store ptr %57, ptr %6, align 8
  store i32 1, ptr %14, align 4
  br label %58

58:                                               ; preds = %56, %20
  call void @llvm.lifetime.end.p0(i64 8, ptr %13) #6
  call void @llvm.lifetime.end.p0(i64 8, ptr %12) #6
  %59 = load ptr, ptr %6, align 8
  ret ptr %59
}