; Function Attrs: nounwind uwtable
define dso_local ptr @ginGetBAEntry(ptr noundef %0, ptr noundef writeonly captures(none) %1, ptr noundef writeonly captures(none) %2, ptr noundef writeonly captures(none) %3, ptr noundef writeonly captures(none) %4) local_unnamed_addr #0 {
  %6 = getelementptr inbounds nuw i8, ptr %0, i64 40
  %7 = tail call ptr @rbt_iterate(ptr noundef nonnull %6) #9
  %8 = icmp eq ptr %7, null
  br i1 %8, label %26, label %9

9:                                                ; preds = %5
  %10 = getelementptr inbounds nuw i8, ptr %7, i64 42
  %11 = load i16, ptr %10, align 2
  store i16 %11, ptr %1, align 2
  %12 = getelementptr inbounds nuw i8, ptr %7, i64 32
  %13 = load i64, ptr %12, align 8
  store i64 %13, ptr %2, align 8
  %14 = getelementptr inbounds nuw i8, ptr %7, i64 40
  %15 = load i8, ptr %14, align 8
  store i8 %15, ptr %3, align 1
  %16 = getelementptr inbounds nuw i8, ptr %7, i64 48
  %17 = load ptr, ptr %16, align 8
  %18 = getelementptr inbounds nuw i8, ptr %7, i64 60
  %19 = load i32, ptr %18, align 4
  store i32 %19, ptr %4, align 4
  %20 = getelementptr inbounds nuw i8, ptr %7, i64 44
  %21 = load i8, ptr %20, align 4, !range !4, !noundef !5
  %22 = trunc nuw i8 %21 to i1
  %23 = icmp ugt i32 %19, 1
  %or.cond = select i1 %22, i1 %23, i1 false
  br i1 %or.cond, label %24, label %26

24:                                               ; preds = %9
  %25 = zext i32 %19 to i64
  tail call void @pg_qsort(ptr noundef %17, i64 noundef %25, i64 noundef 6, ptr noundef nonnull @qsortCompareItemPointers) #9
  br label %26

26:                                               ; preds = %9, %24, %5
  %.0 = phi ptr [ null, %5 ], [ %17, %24 ], [ %17, %9 ]
  ret ptr %.0
}